target datalayout = "e-m:e-p270:32:32-p271:32:32-p272:64:64-i64:64-i128:128-f80:128-n8:16:32:64-S128"
target triple = "x86_64-pc-linux-gnu"

@stderr = external global ptr, align 8
@.str.14 = private unnamed_addr constant [42 x i8] c"ucm error: unable to allocate a UCMTable\0A\00", align 1

; Function Attrs: mustprogress uwtable
define ptr @ucm_openTable() #0 {
  %1 = alloca ptr, align 8
  call void @llvm.lifetime.start.p0(i64 8, ptr %1) #12
  %2 = call noalias ptr @uprv_malloc_77(i64 noundef 64) #13
  store ptr %2, ptr %1, align 8, !tbaa !3
  %3 = load ptr, ptr %1, align 8, !tbaa !3
  %4 = icmp eq ptr %3, null
  br i1 %4, label %5, label %8

5:                                                ; preds = %0
  %6 = load ptr, ptr @stderr, align 8, !tbaa !10
  %7 = call i32 (ptr, ptr, ...) @fprintf(ptr noundef %6, ptr noundef @.str.14) #12
  call void @exit(i32 noundef 7) #14
  unreachable

8:                                                ; preds = %0
  %9 = load ptr, ptr %1, align 8, !tbaa !3
  call void @llvm.memset.p0.i64(ptr align 8 %9, i8 0, i64 64, i1 false)
  %10 = load ptr, ptr %1, align 8, !tbaa !3
  call void @llvm.lifetime.end.p0(i64 8, ptr %1) #12
  ret ptr %10
}