; Function Attrs: mustprogress uwtable
define noalias nonnull ptr @ucm_openTable() local_unnamed_addr #2 {
  %1 = tail call noalias dereferenceable_or_null(64) ptr @uprv_malloc_77(i64 noundef 64) #17
  %2 = icmp eq ptr %1, null
  br i1 %2, label %3, label %6

3:                                                ; preds = %0
  %4 = load ptr, ptr @stderr, align 8, !tbaa !32
  %5 = tail call i64 @fwrite(ptr nonnull @.str.14, i64 41, i64 1, ptr %4) #18
  tail call void @exit(i32 noundef 7) #19
  unreachable

6:                                                ; preds = %0
  tail call void @llvm.memset.p0.i64(ptr noundef nonnull align 8 dereferenceable(64) %1, i8 0, i64 64, i1 false)
  ret ptr %1
}